target datalayout = "e-m:e-p270:32:32-p271:32:32-p272:64:64-i64:64-i128:128-f80:128-n8:16:32:64-S128"
target triple = "x86_64-pc-linux-gnu"

%class.EpsilonMemoryPool = type { %class.CollectedMemoryPool.base, ptr }
%class.CollectedMemoryPool.base = type { %class.MemoryPool.base }
%class.MemoryPool.base = type <{ ptr, ptr, i32, [4 x i8], i64, i64, i8, [7 x i8], [5 x ptr], i32, [4 x i8], %class.MemoryUsage, %class.MemoryUsage, ptr, ptr, ptr, ptr, %class.OopHandle, i8 }>
%class.MemoryUsage = type { i64, i64, i64, i64 }
%class.OopHandle = type { ptr }
%class.MemoryPool = type <{ ptr, ptr, i32, [4 x i8], i64, i64, i8, [7 x i8], [5 x ptr], i32, [4 x i8], %class.MemoryUsage, %class.MemoryUsage, ptr, ptr, ptr, ptr, %class.OopHandle, i8, [7 x i8] }>

$_Z12jdouble_castl = comdat any

$_Z11jfloat_casti = comdat any

$_ZN19CollectedMemoryPoolC2EPKcmmb = comdat any

$_ZNK10MemoryPool12initial_sizeEv = comdat any

$_ZN17EpsilonMemoryPool18committed_in_bytesEv = comdat any

$_ZN11MemoryUsageC2Emmmm = comdat any

$_ZN17EpsilonMemoryPoolD2Ev = comdat any

$_ZN17EpsilonMemoryPoolD0Ev = comdat any

$_ZNK17EpsilonMemoryPool8max_sizeEv = comdat any

$_ZN17EpsilonMemoryPool13used_in_bytesEv = comdat any

$_ZN19CollectedMemoryPool17is_collected_poolEv = comdat any

$_ZN10MemoryPool25get_last_collection_usageEv = comdat any

$_ZN19CollectedMemoryPoolD2Ev = comdat any

$_ZN19CollectedMemoryPoolD0Ev = comdat any

$_ZNK10MemoryPool8max_sizeEv = comdat any

$_ZN10MemoryPoolD2Ev = comdat any

$_ZN8CHeapObjIL8MEMFLAGS9EEdlEPv = comdat any

$_ZN12CHeapObjBasedlEPv = comdat any

$_ZTV19CollectedMemoryPool = comdat any

@_ZL11min_jdouble = internal global double 0.000000e+00, align 8
@_ZL11max_jdouble = internal global double 0.000000e+00, align 8
@_ZL10min_jfloat = internal global float 0.000000e+00, align 4
@_ZL10max_jfloat = internal global float 0.000000e+00, align 4
@.str = private unnamed_addr constant [13 x i8] c"Epsilon Heap\00", align 1
@_ZTV17EpsilonMemoryPool = hidden unnamed_addr constant { [10 x ptr] } { [10 x ptr] [ptr null, ptr null, ptr @_ZN17EpsilonMemoryPoolD2Ev, ptr @_ZN17EpsilonMemoryPoolD0Ev, ptr @_ZNK17EpsilonMemoryPool8max_sizeEv, ptr @_ZN10MemoryPool24get_memory_pool_instanceEP10JavaThread, ptr @_ZN17EpsilonMemoryPool16get_memory_usageEv, ptr @_ZN17EpsilonMemoryPool13used_in_bytesEv, ptr @_ZN19CollectedMemoryPool17is_collected_poolEv, ptr @_ZN10MemoryPool25get_last_collection_usageEv] }, align 8
@_ZTV19CollectedMemoryPool = linkonce_odr hidden unnamed_addr constant { [10 x ptr] } { [10 x ptr] [ptr null, ptr null, ptr @_ZN19CollectedMemoryPoolD2Ev, ptr @_ZN19CollectedMemoryPoolD0Ev, ptr @_ZNK10MemoryPool8max_sizeEv, ptr @_ZN10MemoryPool24get_memory_pool_instanceEP10JavaThread, ptr @__cxa_pure_virtual, ptr @__cxa_pure_virtual, ptr @_ZN19CollectedMemoryPool17is_collected_poolEv, ptr @_ZN10MemoryPool25get_last_collection_usageEv] }, comdat, align 8
@llvm.global_ctors = appending global [1 x { i32, ptr, ptr }] [{ i32, ptr, ptr } { i32 65535, ptr @_GLOBAL__sub_I_epsilonMemoryPool.cpp, ptr null }]

@_ZN17EpsilonMemoryPoolC1EP11EpsilonHeap = hidden unnamed_addr alias void (ptr, ptr), ptr @_ZN17EpsilonMemoryPoolC2EP11EpsilonHeap

; Function Attrs: nounwind uwtable
define internal void @__cxx_global_var_init() #0 section ".text.startup" {
  %1 = call noundef double @_Z12jdouble_castl(i64 noundef 1)
  store double %1, ptr @_ZL11min_jdouble, align 8
  ret void
}

; Function Attrs: mustprogress nounwind uwtable
define linkonce_odr hidden noundef double @_Z12jdouble_castl(i64 noundef %0) #1 comdat {
  %2 = alloca i64, align 8
  store i64 %0, ptr %2, align 8
  %3 = load double, ptr %2, align 8
  ret double %3
}

; Function Attrs: nounwind uwtable
define internal void @__cxx_global_var_init.1() #0 section ".text.startup" {
  %1 = call noundef double @_Z12jdouble_castl(i64 noundef 9218868437227405311)
  store double %1, ptr @_ZL11max_jdouble, align 8
  ret void
}

; Function Attrs: nounwind uwtable
define internal void @__cxx_global_var_init.2() #0 section ".text.startup" {
  %1 = call noundef float @_Z11jfloat_casti(i32 noundef 1)
  store float %1, ptr @_ZL10min_jfloat, align 4
  ret void
}

; Function Attrs: mustprogress nounwind uwtable
define linkonce_odr hidden noundef float @_Z11jfloat_casti(i32 noundef %0) #1 comdat {
  %2 = alloca i32, align 4
  store i32 %0, ptr %2, align 4
  %3 = load float, ptr %2, align 4
  ret float %3
}

; Function Attrs: nounwind uwtable
define internal void @__cxx_global_var_init.3() #0 section ".text.startup" {
  %1 = call noundef float @_Z11jfloat_casti(i32 noundef 2139095039)
  store float %1, ptr @_ZL10max_jfloat, align 4
  ret void
}

; Function Attrs: mustprogress nounwind uwtable
define hidden void @_ZN17EpsilonMemoryPoolC2EP11EpsilonHeap(ptr noundef nonnull align 8 dereferenceable(216) %0, ptr noundef %1) unnamed_addr #1 align 2 {
  %3 = alloca ptr, align 8
  %4 = alloca ptr, align 8
  store ptr %0, ptr %3, align 8
  store ptr %1, ptr %4, align 8
  %5 = load ptr, ptr %3, align 8
  %6 = load ptr, ptr %4, align 8
  %7 = load ptr, ptr %6, align 8
  %8 = getelementptr inbounds ptr, ptr %7, i64 11
  %9 = load ptr, ptr %8, align 8
  %10 = call noundef i64 %9(ptr noundef nonnull align 8 dereferenceable(480) %6)
  %11 = load ptr, ptr %4, align 8
  %12 = load ptr, ptr %11, align 8
  %13 = getelementptr inbounds ptr, ptr %12, i64 15
  %14 = load ptr, ptr %13, align 8
  %15 = call noundef i64 %14(ptr noundef nonnull align 8 dereferenceable(480) %11)
  call void @_ZN19CollectedMemoryPoolC2EPKcmmb(ptr noundef nonnull align 8 dereferenceable(201) %5, ptr noundef @.str, i64 noundef %10, i64 noundef %15, i1 noundef zeroext false)
  store ptr getelementptr inbounds inrange(-16, 64) ({ [10 x ptr] }, ptr @_ZTV17EpsilonMemoryPool, i32 0, i32 0, i32 2), ptr %5, align 8
  %16 = getelementptr inbounds %class.EpsilonMemoryPool, ptr %5, i32 0, i32 1
  %17 = load ptr, ptr %4, align 8
  store ptr %17, ptr %16, align 8
  ret void
}

; Function Attrs: mustprogress nounwind uwtable
define linkonce_odr hidden void @_ZN19CollectedMemoryPoolC2EPKcmmb(ptr noundef nonnull align 8 dereferenceable(201) %0, ptr noundef %1, i64 noundef %2, i64 noundef %3, i1 noundef zeroext %4) unnamed_addr #1 comdat align 2 {
  %6 = alloca ptr, align 8
  %7 = alloca ptr, align 8
  %8 = alloca i64, align 8
  %9 = alloca i64, align 8
  %10 = alloca i8, align 1
  store ptr %0, ptr %6, align 8
  store ptr %1, ptr %7, align 8
  store i64 %2, ptr %8, align 8
  store i64 %3, ptr %9, align 8
  %11 = zext i1 %4 to i8
  store i8 %11, ptr %10, align 1
  %12 = load ptr, ptr %6, align 8
  %13 = load ptr, ptr %7, align 8
  %14 = load i64, ptr %8, align 8
  %15 = load i64, ptr %9, align 8
  %16 = load i8, ptr %10, align 1
  %17 = trunc i8 %16 to i1
  call void @_ZN10MemoryPoolC2EPKcNS_8PoolTypeEmmbb(ptr noundef nonnull align 8 dereferenceable(201) %12, ptr noundef %13, i32 noundef 1, i64 noundef %14, i64 noundef %15, i1 noundef zeroext %17, i1 noundef zeroext true)
  store ptr getelementptr inbounds inrange(-16, 64) ({ [10 x ptr] }, ptr @_ZTV19CollectedMemoryPool, i32 0, i32 0, i32 2), ptr %12, align 8
  ret void
}

; Function Attrs: mustprogress nounwind uwtable
define hidden void @_ZN17EpsilonMemoryPool16get_memory_usageEv(ptr dead_on_unwind noalias writable sret(%class.MemoryUsage) align 8 %0, ptr noundef nonnull align 8 dereferenceable(216) %1) unnamed_addr #1 align 2 {
  %3 = alloca ptr, align 8
  %4 = alloca i64, align 8
  %5 = alloca i64, align 8
  %6 = alloca i64, align 8
  %7 = alloca i64, align 8
  store ptr %1, ptr %3, align 8
  %8 = load ptr, ptr %3, align 8
  %9 = call noundef i64 @_ZNK10MemoryPool12initial_sizeEv(ptr noundef nonnull align 8 dereferenceable(201) %8)
  store i64 %9, ptr %4, align 8
  %10 = load ptr, ptr %8, align 8
  %11 = getelementptr inbounds ptr, ptr %10, i64 2
  %12 = load ptr, ptr %11, align 8
  %13 = call noundef i64 %12(ptr noundef nonnull align 8 dereferenceable(216) %8)
  store i64 %13, ptr %5, align 8
  %14 = load ptr, ptr %8, align 8
  %15 = getelementptr inbounds ptr, ptr %14, i64 5
  %16 = load ptr, ptr %15, align 8
  %17 = call noundef i64 %16(ptr noundef nonnull align 8 dereferenceable(216) %8)
  store i64 %17, ptr %6, align 8
  %18 = call noundef i64 @_ZN17EpsilonMemoryPool18committed_in_bytesEv(ptr noundef nonnull align 8 dereferenceable(216) %8)
  store i64 %18, ptr %7, align 8
  %19 = load i64, ptr %4, align 8
  %20 = load i64, ptr %6, align 8
  %21 = load i64, ptr %7, align 8
  %22 = load i64, ptr %5, align 8
  call void @_ZN11MemoryUsageC2Emmmm(ptr noundef nonnull align 8 dereferenceable(32) %0, i64 noundef %19, i64 noundef %20, i64 noundef %21, i64 noundef %22)
  ret void
}

; Function Attrs: mustprogress nounwind uwtable
define linkonce_odr hidden noundef i64 @_ZNK10MemoryPool12initial_sizeEv(ptr noundef nonnull align 8 dereferenceable(201) %0) #1 comdat align 2 {
  %2 = alloca ptr, align 8
  store ptr %0, ptr %2, align 8
  %3 = load ptr, ptr %2, align 8
  %4 = getelementptr inbounds %class.MemoryPool, ptr %3, i32 0, i32 4
  %5 = load i64, ptr %4, align 8
  ret i64 %5
}

; Function Attrs: mustprogress nounwind uwtable
define linkonce_odr hidden noundef i64 @_ZN17EpsilonMemoryPool18committed_in_bytesEv(ptr noundef nonnull align 8 dereferenceable(216) %0) #1 comdat align 2 {
  %2 = alloca ptr, align 8
  store ptr %0, ptr %2, align 8
  %3 = load ptr, ptr %2, align 8
  %4 = getelementptr inbounds %class.EpsilonMemoryPool, ptr %3, i32 0, i32 1
  %5 = load ptr, ptr %4, align 8
  %6 = load ptr, ptr %5, align 8
  %7 = getelementptr inbounds ptr, ptr %6, i64 11
  %8 = load ptr, ptr %7, align 8
  %9 = call noundef i64 %8(ptr noundef nonnull align 8 dereferenceable(480) %5)
  ret i64 %9
}

; Function Attrs: mustprogress nounwind uwtable
define linkonce_odr hidden void @_ZN11MemoryUsageC2Emmmm(ptr noundef nonnull align 8 dereferenceable(32) %0, i64 noundef %1, i64 noundef %2, i64 noundef %3, i64 noundef %4) unnamed_addr #1 comdat align 2 {
  %6 = alloca ptr, align 8
  %7 = alloca i64, align 8
  %8 = alloca i64, align 8
  %9 = alloca i64, align 8
  %10 = alloca i64, align 8
  store ptr %0, ptr %6, align 8
  store i64 %1, ptr %7, align 8
  store i64 %2, ptr %8, align 8
  store i64 %3, ptr %9, align 8
  store i64 %4, ptr %10, align 8
  %11 = load ptr, ptr %6, align 8
  %12 = getelementptr inbounds %class.MemoryUsage, ptr %11, i32 0, i32 0
  %13 = load i64, ptr %7, align 8
  store i64 %13, ptr %12, align 8
  %14 = getelementptr inbounds %class.MemoryUsage, ptr %11, i32 0, i32 1
  %15 = load i64, ptr %8, align 8
  store i64 %15, ptr %14, align 8
  %16 = getelementptr inbounds %class.MemoryUsage, ptr %11, i32 0, i32 2
  %17 = load i64, ptr %9, align 8
  store i64 %17, ptr %16, align 8
  %18 = getelementptr inbounds %class.MemoryUsage, ptr %11, i32 0, i32 3
  %19 = load i64, ptr %10, align 8
  store i64 %19, ptr %18, align 8
  ret void
}

; Function Attrs: mustprogress nounwind uwtable
define linkonce_odr hidden void @_ZN17EpsilonMemoryPoolD2Ev(ptr noundef nonnull align 8 dereferenceable(216) %0) unnamed_addr #1 comdat align 2 {
  %2 = alloca ptr, align 8
  store ptr %0, ptr %2, align 8
  %3 = load ptr, ptr %2, align 8
  call void @_ZN19CollectedMemoryPoolD2Ev(ptr noundef nonnull align 8 dereferenceable(201) %3) #5
  ret void
}

; Function Attrs: mustprogress nounwind uwtable
define linkonce_odr hidden void @_ZN17EpsilonMemoryPoolD0Ev(ptr noundef nonnull align 8 dereferenceable(216) %0) unnamed_addr #1 comdat align 2 {
  %2 = alloca ptr, align 8
  store ptr %0, ptr %2, align 8
  %3 = load ptr, ptr %2, align 8
  call void @_ZN17EpsilonMemoryPoolD2Ev(ptr noundef nonnull align 8 dereferenceable(216) %3) #5
  call void @_ZN8CHeapObjIL8MEMFLAGS9EEdlEPv(ptr noundef %3) #5
  ret void
}

; Function Attrs: mustprogress nounwind uwtable
define linkonce_odr hidden noundef i64 @_ZNK17EpsilonMemoryPool8max_sizeEv(ptr noundef nonnull align 8 dereferenceable(216) %0) unnamed_addr #1 comdat align 2 {
  %2 = alloca ptr, align 8
  store ptr %0, ptr %2, align 8
  %3 = load ptr, ptr %2, align 8
  %4 = getelementptr inbounds %class.EpsilonMemoryPool, ptr %3, i32 0, i32 1
  %5 = load ptr, ptr %4, align 8
  %6 = load ptr, ptr %5, align 8
  %7 = getelementptr inbounds ptr, ptr %6, i64 15
  %8 = load ptr, ptr %7, align 8
  %9 = call noundef i64 %8(ptr noundef nonnull align 8 dereferenceable(480) %5)
  ret i64 %9
}

declare noundef ptr @_ZN10MemoryPool24get_memory_pool_instanceEP10JavaThread(ptr noundef nonnull align 8 dereferenceable(201), ptr noundef) unnamed_addr #2

; Function Attrs: mustprogress nounwind uwtable
define linkonce_odr hidden noundef i64 @_ZN17EpsilonMemoryPool13used_in_bytesEv(ptr noundef nonnull align 8 dereferenceable(216) %0) unnamed_addr #1 comdat align 2 {
  %2 = alloca ptr, align 8
  store ptr %0, ptr %2, align 8
  %3 = load ptr, ptr %2, align 8
  %4 = getelementptr inbounds %class.EpsilonMemoryPool, ptr %3, i32 0, i32 1
  %5 = load ptr, ptr %4, align 8
  %6 = load ptr, ptr %5, align 8
  %7 = getelementptr inbounds ptr, ptr %6, i64 12
  %8 = load ptr, ptr %7, align 8
  %9 = call noundef i64 %8(ptr noundef nonnull align 8 dereferenceable(480) %5)
  ret i64 %9
}

; Function Attrs: mustprogress nounwind uwtable
define linkonce_odr hidden noundef zeroext i1 @_ZN19CollectedMemoryPool17is_collected_poolEv(ptr noundef nonnull align 8 dereferenceable(201) %0) unnamed_addr #1 comdat align 2 {
  %2 = alloca ptr, align 8
  store ptr %0, ptr %2, align 8
  ret i1 true
}

; Function Attrs: mustprogress nounwind uwtable
define linkonce_odr hidden void @_ZN10MemoryPool25get_last_collection_usageEv(ptr dead_on_unwind noalias writable sret(%class.MemoryUsage) align 8 %0, ptr noundef nonnull align 8 dereferenceable(201) %1) unnamed_addr #1 comdat align 2 {
  %3 = alloca ptr, align 8
  store ptr %1, ptr %3, align 8
  %4 = load ptr, ptr %3, align 8
  %5 = getelementptr inbounds %class.MemoryPool, ptr %4, i32 0, i32 12
  call void @llvm.memcpy.p0.p0.i64(ptr align 8 %0, ptr align 8 %5, i64 32, i1 false)
  ret void
}

declare void @_ZN10MemoryPoolC2EPKcNS_8PoolTypeEmmbb(ptr noundef nonnull align 8 dereferenceable(201), ptr noundef, i32 noundef, i64 noundef, i64 noundef, i1 noundef zeroext, i1 noundef zeroext) unnamed_addr #2

; Function Attrs: mustprogress nounwind uwtable
define linkonce_odr hidden void @_ZN19CollectedMemoryPoolD2Ev(ptr noundef nonnull align 8 dereferenceable(201) %0) unnamed_addr #1 comdat align 2 {
  %2 = alloca ptr, align 8
  store ptr %0, ptr %2, align 8
  %3 = load ptr, ptr %2, align 8
  call void @_ZN10MemoryPoolD2Ev(ptr noundef nonnull align 8 dereferenceable(201) %3) #5
  ret void
}

; Function Attrs: mustprogress nounwind uwtable
define linkonce_odr hidden void @_ZN19CollectedMemoryPoolD0Ev(ptr noundef nonnull align 8 dereferenceable(201) %0) unnamed_addr #1 comdat align 2 {
  %2 = alloca ptr, align 8
  store ptr %0, ptr %2, align 8
  call void @llvm.trap() #6
  unreachable
}

; Function Attrs: mustprogress nounwind uwtable
define linkonce_odr hidden noundef i64 @_ZNK10MemoryPool8max_sizeEv(ptr noundef nonnull align 8 dereferenceable(201) %0) unnamed_addr #1 comdat align 2 {
  %2 = alloca ptr, align 8
  store ptr %0, ptr %2, align 8
  %3 = load ptr, ptr %2, align 8
  %4 = getelementptr inbounds %class.MemoryPool, ptr %3, i32 0, i32 5
  %5 = load i64, ptr %4, align 8
  ret i64 %5
}

declare void @__cxa_pure_virtual() unnamed_addr

; Function Attrs: mustprogress nounwind uwtable
define linkonce_odr hidden void @_ZN10MemoryPoolD2Ev(ptr noundef nonnull align 8 dereferenceable(201) %0) unnamed_addr #1 comdat align 2 {
  %2 = alloca ptr, align 8
  store ptr %0, ptr %2, align 8
  ret void
}

; Function Attrs: cold noreturn nounwind memory(inaccessiblemem: write)
declare void @llvm.trap() #3

; Function Attrs: mustprogress nounwind uwtable
define linkonce_odr hidden void @_ZN8CHeapObjIL8MEMFLAGS9EEdlEPv(ptr noundef %0) #1 comdat align 2 {
  %2 = alloca ptr, align 8
  store ptr %0, ptr %2, align 8
  %3 = load ptr, ptr %2, align 8
  call void @_ZN12CHeapObjBasedlEPv(ptr noundef %3) #5
  ret void
}

; Function Attrs: mustprogress nounwind uwtable
define linkonce_odr hidden void @_ZN12CHeapObjBasedlEPv(ptr noundef %0) #1 comdat align 2 {
  %2 = alloca ptr, align 8
  store ptr %0, ptr %2, align 8
  %3 = load ptr, ptr %2, align 8
  call void @_Z8FreeHeapPv(ptr noundef %3)
  ret void
}

declare void @_Z8FreeHeapPv(ptr noundef) #2

; Function Attrs: nocallback nofree nounwind willreturn memory(argmem: readwrite)
declare void @llvm.memcpy.p0.p0.i64(ptr noalias nocapture writeonly, ptr noalias nocapture readonly, i64, i1 immarg) #4

; Function Attrs: nounwind uwtable
define internal void @_GLOBAL__sub_I_epsilonMemoryPool.cpp() #0 section ".text.startup" {
  call void @__cxx_global_var_init()
  call void @__cxx_global_var_init.1()
  call void @__cxx_global_var_init.2()
  call void @__cxx_global_var_init.3()
  ret void
}


!llvm.module.flags = !{!0, !1, !2, !3, !4, !5}

!0 = !{i32 7, !"Dwarf Version", i32 5}
!1 = !{i32 2, !"Debug Info Version", i32 3}
!2 = !{i32 1, !"wchar_size", i32 4}
!3 = !{i32 8, !"PIC Level", i32 2}
!4 = !{i32 7, !"uwtable", i32 2}
!5 = !{i32 7, !"frame-pointer", i32 2}
