; ModuleID = 'bench/openjdk/original/epsilonMemoryPool.ll'
source_filename = "bench/openjdk/original/epsilonMemoryPool.ll"
target datalayout = "e-m:e-p270:32:32-p271:32:32-p272:64:64-i64:64-i128:128-f80:128-n8:16:32:64-S128"
target triple = "x86_64-pc-linux-gnu"

%class.MemoryUsage = type { i64, i64, i64, i64 }

$_ZN17EpsilonMemoryPoolD2Ev = comdat any

$_ZN17EpsilonMemoryPoolD0Ev = comdat any

$_ZNK17EpsilonMemoryPool8max_sizeEv = comdat any

$_ZN17EpsilonMemoryPool13used_in_bytesEv = comdat any

$_ZN19CollectedMemoryPool17is_collected_poolEv = comdat any

$_ZN10MemoryPool25get_last_collection_usageEv = comdat any

@.str = private unnamed_addr constant [13 x i8] c"Epsilon Heap\00", align 1
@_ZTV17EpsilonMemoryPool = hidden unnamed_addr constant { [10 x ptr] } { [10 x ptr] [ptr null, ptr null, ptr @_ZN17EpsilonMemoryPoolD2Ev, ptr @_ZN17EpsilonMemoryPoolD0Ev, ptr @_ZNK17EpsilonMemoryPool8max_sizeEv, ptr @_ZN10MemoryPool24get_memory_pool_instanceEP10JavaThread, ptr @_ZN17EpsilonMemoryPool16get_memory_usageEv, ptr @_ZN17EpsilonMemoryPool13used_in_bytesEv, ptr @_ZN19CollectedMemoryPool17is_collected_poolEv, ptr @_ZN10MemoryPool25get_last_collection_usageEv] }, align 8
@llvm.global_ctors = appending global [0 x { i32, ptr, ptr }] zeroinitializer

@_ZN17EpsilonMemoryPoolC1EP11EpsilonHeap = hidden unnamed_addr alias void (ptr, ptr), ptr @_ZN17EpsilonMemoryPoolC2EP11EpsilonHeap

; Function Attrs: mustprogress nounwind uwtable
define hidden void @_ZN17EpsilonMemoryPoolC2EP11EpsilonHeap(ptr noundef nonnull align 8 dereferenceable(216) %0, ptr noundef %1) unnamed_addr #0 align 2 {
  %3 = load ptr, ptr %1, align 8
  %4 = getelementptr inbounds i8, ptr %3, i64 88
  %5 = load ptr, ptr %4, align 8
  %6 = tail call noundef i64 %5(ptr noundef nonnull align 8 dereferenceable(480) %1) #3
  %7 = load ptr, ptr %1, align 8
  %8 = getelementptr inbounds i8, ptr %7, i64 120
  %9 = load ptr, ptr %8, align 8
  %10 = tail call noundef i64 %9(ptr noundef nonnull align 8 dereferenceable(480) %1) #3
  tail call void @_ZN10MemoryPoolC2EPKcNS_8PoolTypeEmmbb(ptr noundef nonnull align 8 dereferenceable(201) %0, ptr noundef nonnull @.str, i32 noundef 1, i64 noundef %6, i64 noundef %10, i1 noundef zeroext false, i1 noundef zeroext true) #3
  store ptr getelementptr inbounds inrange(-16, 64) (i8, ptr @_ZTV17EpsilonMemoryPool, i64 16), ptr %0, align 8
  %11 = getelementptr inbounds i8, ptr %0, i64 208
  store ptr %1, ptr %11, align 8
  ret void
}

; Function Attrs: mustprogress nounwind uwtable
define hidden void @_ZN17EpsilonMemoryPool16get_memory_usageEv(ptr dead_on_unwind noalias nocapture writable writeonly sret(%class.MemoryUsage) align 8 %0, ptr noundef nonnull align 8 dereferenceable(216) %1) unnamed_addr #0 align 2 {
  %3 = getelementptr inbounds i8, ptr %1, i64 24
  %4 = load i64, ptr %3, align 8
  %5 = load ptr, ptr %1, align 8
  %6 = getelementptr inbounds i8, ptr %5, i64 16
  %7 = load ptr, ptr %6, align 8
  %8 = tail call noundef i64 %7(ptr noundef nonnull align 8 dereferenceable(216) %1) #3
  %9 = load ptr, ptr %1, align 8
  %10 = getelementptr inbounds i8, ptr %9, i64 40
  %11 = load ptr, ptr %10, align 8
  %12 = tail call noundef i64 %11(ptr noundef nonnull align 8 dereferenceable(216) %1) #3
  %13 = getelementptr inbounds i8, ptr %1, i64 208
  %14 = load ptr, ptr %13, align 8
  %15 = load ptr, ptr %14, align 8
  %16 = getelementptr inbounds i8, ptr %15, i64 88
  %17 = load ptr, ptr %16, align 8
  %18 = tail call noundef i64 %17(ptr noundef nonnull align 8 dereferenceable(480) %14) #3
  store i64 %4, ptr %0, align 8
  %19 = getelementptr inbounds i8, ptr %0, i64 8
  store i64 %12, ptr %19, align 8
  %20 = getelementptr inbounds i8, ptr %0, i64 16
  store i64 %18, ptr %20, align 8
  %21 = getelementptr inbounds i8, ptr %0, i64 24
  store i64 %8, ptr %21, align 8
  ret void
}

; Function Attrs: mustprogress nounwind uwtable
define linkonce_odr hidden void @_ZN17EpsilonMemoryPoolD2Ev(ptr noundef nonnull align 8 dereferenceable(216) %0) unnamed_addr #0 comdat align 2 {
  ret void
}

; Function Attrs: mustprogress nounwind uwtable
define linkonce_odr hidden void @_ZN17EpsilonMemoryPoolD0Ev(ptr noundef nonnull align 8 dereferenceable(216) %0) unnamed_addr #0 comdat align 2 {
  tail call void @_Z8FreeHeapPv(ptr noundef nonnull %0) #3
  ret void
}

; Function Attrs: mustprogress nounwind uwtable
define linkonce_odr hidden noundef i64 @_ZNK17EpsilonMemoryPool8max_sizeEv(ptr noundef nonnull align 8 dereferenceable(216) %0) unnamed_addr #0 comdat align 2 {
  %2 = getelementptr inbounds i8, ptr %0, i64 208
  %3 = load ptr, ptr %2, align 8
  %4 = load ptr, ptr %3, align 8
  %5 = getelementptr inbounds i8, ptr %4, i64 120
  %6 = load ptr, ptr %5, align 8
  %7 = tail call noundef i64 %6(ptr noundef nonnull align 8 dereferenceable(480) %3) #3
  ret i64 %7
}

declare noundef ptr @_ZN10MemoryPool24get_memory_pool_instanceEP10JavaThread(ptr noundef nonnull align 8 dereferenceable(201), ptr noundef) unnamed_addr #1

; Function Attrs: mustprogress nounwind uwtable
define linkonce_odr hidden noundef i64 @_ZN17EpsilonMemoryPool13used_in_bytesEv(ptr noundef nonnull align 8 dereferenceable(216) %0) unnamed_addr #0 comdat align 2 {
  %2 = getelementptr inbounds i8, ptr %0, i64 208
  %3 = load ptr, ptr %2, align 8
  %4 = load ptr, ptr %3, align 8
  %5 = getelementptr inbounds i8, ptr %4, i64 96
  %6 = load ptr, ptr %5, align 8
  %7 = tail call noundef i64 %6(ptr noundef nonnull align 8 dereferenceable(480) %3) #3
  ret i64 %7
}

; Function Attrs: mustprogress nounwind uwtable
define linkonce_odr hidden noundef zeroext i1 @_ZN19CollectedMemoryPool17is_collected_poolEv(ptr noundef nonnull align 8 dereferenceable(201) %0) unnamed_addr #0 comdat align 2 {
  ret i1 true
}

; Function Attrs: mustprogress nounwind uwtable
define linkonce_odr hidden void @_ZN10MemoryPool25get_last_collection_usageEv(ptr dead_on_unwind noalias writable sret(%class.MemoryUsage) align 8 %0, ptr noundef nonnull align 8 dereferenceable(201) %1) unnamed_addr #0 comdat align 2 {
  %3 = getelementptr inbounds i8, ptr %1, i64 128
  tail call void @llvm.memcpy.p0.p0.i64(ptr noundef nonnull align 8 dereferenceable(32) %0, ptr noundef nonnull align 8 dereferenceable(32) %3, i64 32, i1 false)
  ret void
}

declare void @_ZN10MemoryPoolC2EPKcNS_8PoolTypeEmmbb(ptr noundef nonnull align 8 dereferenceable(201), ptr noundef, i32 noundef, i64 noundef, i64 noundef, i1 noundef zeroext, i1 noundef zeroext) unnamed_addr #1

declare void @_Z8FreeHeapPv(ptr noundef) local_unnamed_addr #1

; Function Attrs: mustprogress nocallback nofree nounwind willreturn memory(argmem: readwrite)
declare void @llvm.memcpy.p0.p0.i64(ptr noalias nocapture writeonly, ptr noalias nocapture readonly, i64, i1 immarg) #2


!llvm.module.flags = !{!0, !1, !2, !3, !4, !5}

!0 = !{i32 7, !"Dwarf Version", i32 5}
!1 = !{i32 2, !"Debug Info Version", i32 3}
!2 = !{i32 1, !"wchar_size", i32 4}
!3 = !{i32 8, !"PIC Level", i32 2}
!4 = !{i32 7, !"uwtable", i32 2}
!5 = !{i32 7, !"frame-pointer", i32 2}
